target datalayout = "e-m:e-p270:32:32-p271:32:32-p272:64:64-i64:64-i128:128-f80:128-n8:16:32:64-S128"
target triple = "x86_64-pc-linux-gnu"

%struct.PJconsts = type { ptr, ptr, ptr, ptr, ptr, ptr, ptr, ptr, ptr, ptr, ptr, ptr, i32, ptr, ptr, ptr, ptr, ptr, ptr, ptr, ptr, double, double, double, double, double, double, double, double, double, double, double, double, double, double, double, double, double, double, double, double, double, double, i32, i32, i32, i32, i32, i32, i32, i32, i32, i32, i32, ptr, ptr, ptr, ptr, ptr, ptr, double, double, double, double, double, double, double, double, double, double, double, i32, [7 x double], i32, ptr, ptr, double, double, i32, [4 x i8], %"class.std::shared_ptr", i8, double, i8, %"class.std::__cxx11::basic_string", %"class.std::__cxx11::basic_string", %"class.std::__cxx11::basic_string", i8, %"class.std::vector", i32, %"class.std::vector.3", i32, i8, i8, i8, ptr }
%"class.std::shared_ptr" = type { %"class.std::__shared_ptr" }
%"class.std::__shared_ptr" = type { ptr, %"class.std::__shared_count" }
%"class.std::__shared_count" = type { ptr }
%"class.std::__cxx11::basic_string" = type { %"struct.std::__cxx11::basic_string<char>::_Alloc_hider", i64, %union.anon }
%"struct.std::__cxx11::basic_string<char>::_Alloc_hider" = type { ptr }
%union.anon = type { i64, [8 x i8] }
%"class.std::vector" = type { %"struct.std::_Vector_base" }
%"struct.std::_Vector_base" = type { %"struct.std::_Vector_base<osgeo::proj::operation::GridDescription, std::allocator<osgeo::proj::operation::GridDescription>>::_Vector_impl" }
%"struct.std::_Vector_base<osgeo::proj::operation::GridDescription, std::allocator<osgeo::proj::operation::GridDescription>>::_Vector_impl" = type { %"struct.std::_Vector_base<osgeo::proj::operation::GridDescription, std::allocator<osgeo::proj::operation::GridDescription>>::_Vector_impl_data" }
%"struct.std::_Vector_base<osgeo::proj::operation::GridDescription, std::allocator<osgeo::proj::operation::GridDescription>>::_Vector_impl_data" = type { ptr, ptr, ptr }
%"class.std::vector.3" = type { %"struct.std::_Vector_base.4" }
%"struct.std::_Vector_base.4" = type { %"struct.std::_Vector_base<PJCoordOperation, std::allocator<PJCoordOperation>>::_Vector_impl" }
%"struct.std::_Vector_base<PJCoordOperation, std::allocator<PJCoordOperation>>::_Vector_impl" = type { %"struct.std::_Vector_base<PJCoordOperation, std::allocator<PJCoordOperation>>::_Vector_impl_data" }
%"struct.std::_Vector_base<PJCoordOperation, std::allocator<PJCoordOperation>>::_Vector_impl_data" = type { ptr, ptr, ptr }
%"struct.(anonymous namespace)::pj_somerc" = type { double, double, double, double, double, double }
%struct.PJ_LP = type { double, double }
%struct.PJ_XY = type { double, double }

; Function Attrs: mustprogress uwtable
define internal { double, double } @_ZL16somerc_e_inverse5PJ_XYP8PJconsts(double %0, double %1, ptr noundef %2) #0 {
  %4 = alloca %struct.PJ_LP, align 8
  %5 = alloca %struct.PJ_XY, align 8
  %6 = alloca ptr, align 8
  %7 = alloca ptr, align 8
  %8 = alloca double, align 8
  %9 = alloca double, align 8
  %10 = alloca double, align 8
  %11 = alloca double, align 8
  %12 = alloca double, align 8
  %13 = alloca double, align 8
  %14 = alloca double, align 8
  %15 = alloca double, align 8
  %16 = alloca i32, align 4
  %17 = alloca i32, align 4
  %18 = getelementptr inbounds nuw { double, double }, ptr %5, i32 0, i32 0
  store double %0, ptr %18, align 8
  %19 = getelementptr inbounds nuw { double, double }, ptr %5, i32 0, i32 1
  store double %1, ptr %19, align 8
  store ptr %2, ptr %6, align 8, !tbaa !3
  call void @llvm.memset.p0.i64(ptr align 8 %4, i8 0, i64 16, i1 false)
  call void @llvm.lifetime.start.p0(i64 8, ptr %7) #7
  %20 = load ptr, ptr %6, align 8, !tbaa !3
  %21 = getelementptr inbounds nuw %struct.PJconsts, ptr %20, i32 0, i32 11
  %22 = load ptr, ptr %21, align 8, !tbaa !43
  store ptr %22, ptr %7, align 8, !tbaa !41
  call void @llvm.lifetime.start.p0(i64 8, ptr %8) #7
  call void @llvm.lifetime.start.p0(i64 8, ptr %9) #7
  call void @llvm.lifetime.start.p0(i64 8, ptr %10) #7
  call void @llvm.lifetime.start.p0(i64 8, ptr %11) #7
  call void @llvm.lifetime.start.p0(i64 8, ptr %12) #7
  call void @llvm.lifetime.start.p0(i64 8, ptr %13) #7
  call void @llvm.lifetime.start.p0(i64 8, ptr %14) #7
  call void @llvm.lifetime.start.p0(i64 8, ptr %15) #7
  call void @llvm.lifetime.start.p0(i64 4, ptr %16) #7
  %23 = getelementptr inbounds nuw %struct.PJ_XY, ptr %5, i32 0, i32 1
  %24 = load double, ptr %23, align 8, !tbaa !62
  %25 = load ptr, ptr %7, align 8, !tbaa !41
  %26 = getelementptr inbounds nuw %"struct.(anonymous namespace)::pj_somerc", ptr %25, i32 0, i32 3
  %27 = load double, ptr %26, align 8, !tbaa !59
  %28 = fdiv double %24, %27
  %29 = call double @exp(double noundef %28) #7, !tbaa !48
  %30 = call double @atan(double noundef %29) #7, !tbaa !48
  %31 = fsub double %30, 0x3FE921FB54442D18
  %32 = fmul double 2.000000e+00, %31
  store double %32, ptr %10, align 8, !tbaa !49
  %33 = getelementptr inbounds nuw %struct.PJ_XY, ptr %5, i32 0, i32 0
  %34 = load double, ptr %33, align 8, !tbaa !64
  %35 = load ptr, ptr %7, align 8, !tbaa !41
  %36 = getelementptr inbounds nuw %"struct.(anonymous namespace)::pj_somerc", ptr %35, i32 0, i32 3
  %37 = load double, ptr %36, align 8, !tbaa !59
  %38 = fdiv double %34, %37
  store double %38, ptr %11, align 8, !tbaa !49
  %39 = load double, ptr %10, align 8, !tbaa !49
  %40 = call double @cos(double noundef %39) #7, !tbaa !48
  store double %40, ptr %12, align 8, !tbaa !49
  %41 = load ptr, ptr %6, align 8, !tbaa !3
  %42 = getelementptr inbounds nuw %struct.PJconsts, ptr %41, i32 0, i32 0
  %43 = load ptr, ptr %42, align 8, !tbaa !54
  %44 = load ptr, ptr %7, align 8, !tbaa !41
  %45 = getelementptr inbounds nuw %"struct.(anonymous namespace)::pj_somerc", ptr %44, i32 0, i32 4
  %46 = load double, ptr %45, align 8, !tbaa !55
  %47 = load double, ptr %10, align 8, !tbaa !49
  %48 = call double @sin(double noundef %47) #7, !tbaa !48
  %49 = load ptr, ptr %7, align 8, !tbaa !41
  %50 = getelementptr inbounds nuw %"struct.(anonymous namespace)::pj_somerc", ptr %49, i32 0, i32 5
  %51 = load double, ptr %50, align 8, !tbaa !53
  %52 = load double, ptr %12, align 8, !tbaa !49
  %53 = fmul double %51, %52
  %54 = load double, ptr %11, align 8, !tbaa !49
  %55 = call double @cos(double noundef %54) #7, !tbaa !48
  %56 = fmul double %53, %55
  %57 = call double @llvm.fmuladd.f64(double %46, double %48, double %56)
  %58 = call noundef double @_Z5aasinP6pj_ctxd(ptr noundef %43, double noundef %57)
  store double %58, ptr %8, align 8, !tbaa !49
  %59 = load ptr, ptr %6, align 8, !tbaa !3
  %60 = getelementptr inbounds nuw %struct.PJconsts, ptr %59, i32 0, i32 0
  %61 = load ptr, ptr %60, align 8, !tbaa !54
  %62 = load double, ptr %12, align 8, !tbaa !49
  %63 = load double, ptr %11, align 8, !tbaa !49
  %64 = call double @sin(double noundef %63) #7, !tbaa !48
  %65 = fmul double %62, %64
  %66 = load double, ptr %8, align 8, !tbaa !49
  %67 = call double @cos(double noundef %66) #7, !tbaa !48
  %68 = fdiv double %65, %67
  %69 = call noundef double @_Z5aasinP6pj_ctxd(ptr noundef %61, double noundef %68)
  store double %69, ptr %9, align 8, !tbaa !49
  %70 = load ptr, ptr %7, align 8, !tbaa !41
  %71 = getelementptr inbounds nuw %"struct.(anonymous namespace)::pj_somerc", ptr %70, i32 0, i32 0
  %72 = load double, ptr %71, align 8, !tbaa !56
  %73 = load double, ptr %8, align 8, !tbaa !49
  %74 = call double @llvm.fmuladd.f64(double 5.000000e-01, double %73, double 0x3FE921FB54442D18)
  %75 = call double @tan(double noundef %74) #7, !tbaa !48
  %76 = call double @log(double noundef %75) #7, !tbaa !48
  %77 = fsub double %72, %76
  %78 = load ptr, ptr %7, align 8, !tbaa !41
  %79 = getelementptr inbounds nuw %"struct.(anonymous namespace)::pj_somerc", ptr %78, i32 0, i32 1
  %80 = load double, ptr %79, align 8, !tbaa !52
  %81 = fdiv double %77, %80
  store double %81, ptr %14, align 8, !tbaa !49
  store i32 6, ptr %16, align 4, !tbaa !48
  br label %82

82:                                               ; preds = %129, %3
  %83 = load i32, ptr %16, align 4, !tbaa !48
  %84 = icmp ne i32 %83, 0
  br i1 %84, label %85, label %132

85:                                               ; preds = %82
  %86 = load ptr, ptr %6, align 8, !tbaa !3
  %87 = getelementptr inbounds nuw %struct.PJconsts, ptr %86, i32 0, i32 26
  %88 = load double, ptr %87, align 8, !tbaa !44
  %89 = load double, ptr %8, align 8, !tbaa !49
  %90 = call double @sin(double noundef %89) #7, !tbaa !48
  %91 = fmul double %88, %90
  store double %91, ptr %13, align 8, !tbaa !49
  %92 = load double, ptr %14, align 8, !tbaa !49
  %93 = load double, ptr %8, align 8, !tbaa !49
  %94 = call double @llvm.fmuladd.f64(double 5.000000e-01, double %93, double 0x3FE921FB54442D18)
  %95 = call double @tan(double noundef %94) #7, !tbaa !48
  %96 = call double @log(double noundef %95) #7, !tbaa !48
  %97 = fadd double %92, %96
  %98 = load ptr, ptr %7, align 8, !tbaa !41
  %99 = getelementptr inbounds nuw %"struct.(anonymous namespace)::pj_somerc", ptr %98, i32 0, i32 2
  %100 = load double, ptr %99, align 8, !tbaa !45
  %101 = load double, ptr %13, align 8, !tbaa !49
  %102 = fadd double 1.000000e+00, %101
  %103 = load double, ptr %13, align 8, !tbaa !49
  %104 = fsub double 1.000000e+00, %103
  %105 = fdiv double %102, %104
  %106 = call double @log(double noundef %105) #7, !tbaa !48
  %107 = fneg double %100
  %108 = call double @llvm.fmuladd.f64(double %107, double %106, double %97)
  %109 = load double, ptr %13, align 8, !tbaa !49
  %110 = load double, ptr %13, align 8, !tbaa !49
  %111 = fneg double %109
  %112 = call double @llvm.fmuladd.f64(double %111, double %110, double 1.000000e+00)
  %113 = fmul double %108, %112
  %114 = load double, ptr %8, align 8, !tbaa !49
  %115 = call double @cos(double noundef %114) #7, !tbaa !48
  %116 = fmul double %113, %115
  %117 = load ptr, ptr %6, align 8, !tbaa !3
  %118 = getelementptr inbounds nuw %struct.PJconsts, ptr %117, i32 0, i32 33
  %119 = load double, ptr %118, align 8, !tbaa !51
  %120 = fmul double %116, %119
  store double %120, ptr %15, align 8, !tbaa !49
  %121 = load double, ptr %15, align 8, !tbaa !49
  %122 = load double, ptr %8, align 8, !tbaa !49
  %123 = fsub double %122, %121
  store double %123, ptr %8, align 8, !tbaa !49
  %124 = load double, ptr %15, align 8, !tbaa !49
  %125 = call double @llvm.fabs.f64(double %124)
  %126 = fcmp olt double %125, 1.000000e-10
  br i1 %126, label %127, label %128

127:                                              ; preds = %85
  br label %132

128:                                              ; preds = %85
  br label %129

129:                                              ; preds = %128
  %130 = load i32, ptr %16, align 4, !tbaa !48
  %131 = add nsw i32 %130, -1
  store i32 %131, ptr %16, align 4, !tbaa !48
  br label %82, !llvm.loop !65

132:                                              ; preds = %127, %82
  %133 = load i32, ptr %16, align 4, !tbaa !48
  %134 = icmp ne i32 %133, 0
  br i1 %134, label %135, label %144

135:                                              ; preds = %132
  %136 = load double, ptr %8, align 8, !tbaa !49
  %137 = getelementptr inbounds nuw %struct.PJ_LP, ptr %4, i32 0, i32 1
  store double %136, ptr %137, align 8, !tbaa !67
  %138 = load double, ptr %9, align 8, !tbaa !49
  %139 = load ptr, ptr %7, align 8, !tbaa !41
  %140 = getelementptr inbounds nuw %"struct.(anonymous namespace)::pj_somerc", ptr %139, i32 0, i32 1
  %141 = load double, ptr %140, align 8, !tbaa !52
  %142 = fdiv double %138, %141
  %143 = getelementptr inbounds nuw %struct.PJ_LP, ptr %4, i32 0, i32 0
  store double %142, ptr %143, align 8, !tbaa !69
  br label %147

144:                                              ; preds = %132
  %145 = load ptr, ptr %6, align 8, !tbaa !3
  %146 = call i32 @proj_errno_set(ptr noundef %145, i32 noundef 2050)
  store i32 1, ptr %17, align 4
  br label %148

147:                                              ; preds = %135
  store i32 1, ptr %17, align 4
  br label %148

148:                                              ; preds = %147, %144
  call void @llvm.lifetime.end.p0(i64 4, ptr %16) #7
  call void @llvm.lifetime.end.p0(i64 8, ptr %15) #7
  call void @llvm.lifetime.end.p0(i64 8, ptr %14) #7
  call void @llvm.lifetime.end.p0(i64 8, ptr %13) #7
  call void @llvm.lifetime.end.p0(i64 8, ptr %12) #7
  call void @llvm.lifetime.end.p0(i64 8, ptr %11) #7
  call void @llvm.lifetime.end.p0(i64 8, ptr %10) #7
  call void @llvm.lifetime.end.p0(i64 8, ptr %9) #7
  call void @llvm.lifetime.end.p0(i64 8, ptr %8) #7
  call void @llvm.lifetime.end.p0(i64 8, ptr %7) #7
  %149 = load { double, double }, ptr %4, align 8
  ret { double, double } %149
}