; Function Attrs: mustprogress uwtable
define internal { double, double } @_ZL16somerc_e_inverse5PJ_XYP8PJconsts(double %0, double %1, ptr noundef %2) #0 {
  %4 = getelementptr inbounds nuw i8, ptr %2, i64 88
  %5 = load ptr, ptr %4, align 8, !tbaa !40
  %6 = getelementptr inbounds nuw i8, ptr %5, i64 24
  %7 = load double, ptr %6, align 8, !tbaa !55
  %8 = fdiv double %1, %7
  %9 = tail call double @exp(double noundef %8) #6, !tbaa !45
  %10 = tail call double @atan(double noundef %9) #6, !tbaa !45
  %11 = fadd double %10, 0xBFE921FB54442D18
  %12 = fmul double %11, 2.000000e+00
  %13 = fdiv double %0, %7
  %14 = tail call double @cos(double noundef %12) #6, !tbaa !45
  %15 = load ptr, ptr %2, align 8, !tbaa !50
  %16 = getelementptr inbounds nuw i8, ptr %5, i64 32
  %17 = load double, ptr %16, align 8, !tbaa !51
  %18 = tail call double @sin(double noundef %12) #6, !tbaa !45
  %19 = getelementptr inbounds nuw i8, ptr %5, i64 40
  %20 = load double, ptr %19, align 8, !tbaa !49
  %21 = fmul double %14, %20
  %22 = tail call double @cos(double noundef %13) #6, !tbaa !45
  %23 = fmul double %21, %22
  %24 = tail call double @llvm.fmuladd.f64(double %17, double %18, double %23)
  %25 = tail call noundef double @_Z5aasinP6pj_ctxd(ptr noundef %15, double noundef %24)
  %26 = load ptr, ptr %2, align 8, !tbaa !50
  %27 = tail call double @sin(double noundef %13) #6, !tbaa !45
  %28 = fmul double %14, %27
  %29 = tail call double @cos(double noundef %25) #6, !tbaa !45
  %30 = fdiv double %28, %29
  %31 = tail call noundef double @_Z5aasinP6pj_ctxd(ptr noundef %26, double noundef %30)
  %32 = load double, ptr %5, align 8, !tbaa !52
  %33 = tail call double @llvm.fmuladd.f64(double %25, double 5.000000e-01, double 0x3FE921FB54442D18)
  %34 = tail call double @tan(double noundef %33) #6, !tbaa !45
  %35 = tail call double @log(double noundef %34) #6, !tbaa !45
  %36 = fsub double %32, %35
  %37 = getelementptr inbounds nuw i8, ptr %5, i64 8
  %38 = load double, ptr %37, align 8, !tbaa !48
  %39 = fdiv double %36, %38
  %40 = getelementptr inbounds nuw i8, ptr %2, i64 208
  %41 = load double, ptr %40, align 8, !tbaa !41
  %42 = getelementptr inbounds nuw i8, ptr %5, i64 16
  %43 = load double, ptr %42, align 8, !tbaa !42
  %44 = fneg double %43
  %45 = getelementptr inbounds nuw i8, ptr %2, i64 264
  %46 = load double, ptr %45, align 8, !tbaa !47
  br label %49

47:                                               ; preds = %49
  %48 = add nsw i32 %.041, -1
  %.not = icmp eq i32 %48, 0
  br i1 %.not, label %72, label %49, !llvm.loop !58

49:                                               ; preds = %3, %47
  %.041 = phi i32 [ 6, %3 ], [ %48, %47 ]
  %.03840 = phi double [ %25, %3 ], [ %67, %47 ]
  %50 = tail call double @sin(double noundef %.03840) #6, !tbaa !45
  %51 = fmul double %41, %50
  %52 = tail call double @llvm.fmuladd.f64(double %.03840, double 5.000000e-01, double 0x3FE921FB54442D18)
  %53 = tail call double @tan(double noundef %52) #6, !tbaa !45
  %54 = tail call double @log(double noundef %53) #6, !tbaa !45
  %55 = fadd double %39, %54
  %56 = fadd double %51, 1.000000e+00
  %57 = fsub double 1.000000e+00, %51
  %58 = fdiv double %56, %57
  %59 = tail call double @log(double noundef %58) #6, !tbaa !45
  %60 = tail call double @llvm.fmuladd.f64(double %44, double %59, double %55)
  %61 = fneg double %51
  %62 = tail call double @llvm.fmuladd.f64(double %61, double %51, double 1.000000e+00)
  %63 = fmul double %62, %60
  %64 = tail call double @cos(double noundef %.03840) #6, !tbaa !45
  %65 = fmul double %64, %63
  %66 = fmul double %46, %65
  %67 = fsub double %.03840, %66
  %68 = tail call double @llvm.fabs.f64(double %66)
  %69 = fcmp olt double %68, 1.000000e-10
  br i1 %69, label %70, label %47

70:                                               ; preds = %49
  %71 = fdiv double %31, %38
  br label %74

72:                                               ; preds = %47
  %73 = tail call i32 @proj_errno_set(ptr noundef nonnull %2, i32 noundef 2050)
  br label %74

74:                                               ; preds = %70, %72
  %.sroa.3.0 = phi double [ %67, %70 ], [ 0.000000e+00, %72 ]
  %.sroa.037.0 = phi double [ %71, %70 ], [ 0.000000e+00, %72 ]
  %.fca.0.insert = insertvalue { double, double } poison, double %.sroa.037.0, 0
  %.fca.1.insert = insertvalue { double, double } %.fca.0.insert, double %.sroa.3.0, 1
  ret { double, double } %.fca.1.insert
}